ccopy_reg
_reconstructor
p1
(cnetwork
Network
p2
c__builtin__
object
p3
NtRp4
(dp5
S'layers'
p6
(lp7
(lp8
g1
(cnetwork
Neuron
p9
g3
NtRp10
(dp11
S'sigmoid'
p12
F0.12253304135805511
sS'tau'
p13
F3.2871806770962508
sS'b'
F-0.1315319627658238
sS'output'
p14
F0.1396440517232688
sbag1
(g9
g3
NtRp15
(dp16
g12
F0.17871019742138608
sg13
F2.4522520172249394
sS'b'
F0.14622177898092248
sg14
F0.21759700030401866
sbag1
(g9
g3
NtRp17
(dp18
g12
F0.79515396748261835
sg13
F1.8747925607197591
sS'b'
F-0.38301365484201166
sg14
F3.8817152458891178
sbag1
(g9
g3
NtRp19
(dp20
g12
F0.10780986831155935
sg13
F3.8425888464224229
sS'b'
F0.63882369509618275
sg14
F0.12083732433526552
sbag1
(g9
g3
NtRp21
(dp22
g12
F-0.38585954138709583
sg13
F2.9535870413314322
sS'b'
F-0.1934034495442033
sg14
F-0.62829200710631739
sbag1
(g9
g3
NtRp23
(dp24
g12
I0
sg13
F2.3344598188932308
sS'b'
F-0.35588041810953702
sg14
I0
sbag1
(g9
g3
NtRp25
(dp26
g12
F-0.48548206751354361
sg13
F4.3052972019961304
sS'b'
F-0.0062081649949657508
sg14
F-0.94356685522583417
sbaa(lp27
g1
(g9
g3
NtRp28
(dp29
g12
F-0.69122242337925821
sg13
F1.6690769559249723
sS'b'
F0.069147195258624186
sg14
F-2.2385771367985603
sbag1
(g9
g3
NtRp30
(dp31
g12
F0.38182912711221262
sg13
F1.2082468328649054
sS'b'
F-0.11792967818623908
sg14
F0.61767570077913325
sbag1
(g9
g3
NtRp32
(dp33
g12
F-0.12994087932081841
sg13
F1.1904327332666105
sS'b'
F0.12748878641406172
sg14
F-0.14934718369412017
sbag1
(g9
g3
NtRp34
(dp35
g12
F0.79621472374925506
sg13
F2.4712750864988244
sS'b'
F-0.053630501829376141
sg14
F3.9071258650186422
sbag1
(g9
g3
NtRp36
(dp37
g12
F-0.32139032877687218
sg13
F2.1577467046052079
sS'b'
F0.044390436206145065
sg14
F-0.47360116191329454
sbag1
(g9
g3
NtRp38
(dp39
g12
F0.22246406678072433
sg13
F3.3035074708485799
sS'b'
F0.0026170996937315769
sg14
F0.28611419392495968
sbag1
(g9
g3
NtRp40
(dp41
g12
F-0.19263597162827087
sg13
F1.5542845822615552
sS'b'
F-0.26781318197789072
sg14
F-0.23859865545009989
sbaa(lp42
g1
(g9
g3
NtRp43
(dp44
g12
F0.4875630515153076
sg13
F0.59941616941271803
sS'b'
F0.1326351986152125
sg14
F0.95145959509176992
sbag1
(g9
g3
NtRp45
(dp46
g12
F-0.21612054776690284
sg13
F1.8241289303254506
sS'b'
F-0.011124059859824439
sg14
F-0.2757063565720772
sbag1
(g9
g3
NtRp47
(dp48
g12
F0.70867993017496378
sg13
F1.0210510944982303
sS'b'
F-0.19700480571603918
sg14
F2.432650557170982
sbaasS'version'
p49
I1
sS'weights'
p50
ccollections
OrderedDict
p51
((lp52
(lp53
(g10
g28
tp54
aF-4.9478814202197423
aa(lp55
(g10
g30
tp56
aF0.072827408779240738
aa(lp57
(g10
g32
tp58
aF-0.24165976486398838
aa(lp59
(g10
g34
tp60
aF1.0450274840513756
aa(lp61
(g10
g36
tp62
aF-1.4145228723315482
aa(lp63
(g10
g38
tp64
aF0.98123946718933386
aa(lp65
(g10
g40
tp66
aF2.4824868170040473
aa(lp67
(g15
g28
tp68
aF-0.68913465729672163
aa(lp69
(g15
g30
tp70
aF1.1324702593564278
aa(lp71
(g15
g32
tp72
aF-0.94293413729994913
aa(lp73
(g15
g34
tp74
aF1.6318853251859939
aa(lp75
(g15
g36
tp76
aF-1.4677516587662085
aa(lp77
(g15
g38
tp78
aF2.5124387138585229
aa(lp79
(g15
g40
tp80
aF-1.359530241035497
aa(lp81
(g17
g28
tp82
aF-0.37393026532506218
aa(lp83
(g17
g30
tp84
aF1.5130922334877162
aa(lp85
(g17
g32
tp86
aF0.0040526274098459381
aa(lp87
(g17
g34
tp88
aF-0.47804561924546318
aa(lp89
(g17
g36
tp90
aF0.035907385995495575
aa(lp91
(g17
g38
tp92
aF0.48954325357032652
aa(lp93
(g17
g40
tp94
aF0.25146117735904588
aa(lp95
(g19
g28
tp96
aF-0.28584430213811285
aa(lp97
(g19
g30
tp98
aF-2.7826718033002078
aa(lp99
(g19
g32
tp100
aF-1.1032749418013268
aa(lp101
(g19
g34
tp102
aF1.3515817094632885
aa(lp103
(g19
g36
tp104
aF0.4809425572310197
aa(lp105
(g19
g38
tp106
aF0.052170598381213594
aa(lp107
(g19
g40
tp108
aF-0.71585467025552629
aa(lp109
(g21
g28
tp110
aF1.6347010714401613
aa(lp111
(g21
g30
tp112
aF-0.30275315330422004
aa(lp113
(g21
g32
tp114
aF1.0626415819664037
aa(lp115
(g21
g34
tp116
aF-0.3192391322102574
aa(lp117
(g21
g36
tp118
aF1.2049726533788538
aa(lp119
(g21
g38
tp120
aF-0.81960051132595635
aa(lp121
(g21
g40
tp122
aF-0.73601835771508772
aa(lp123
(g23
g28
tp124
aF3.3794962765156371
aa(lp125
(g23
g30
tp126
aF0.39809108498444934
aa(lp127
(g23
g32
tp128
aF1.8069413411178312
aa(lp129
(g23
g34
tp130
aF3.7402396269449123
aa(lp131
(g23
g36
tp132
aF-3.5526650766172256
aa(lp133
(g23
g38
tp134
aF1.1521111055302604
aa(lp135
(g23
g40
tp136
aF-1.391738897423942
aa(lp137
(g25
g28
tp138
aF-1.5138390681574636
aa(lp139
(g25
g30
tp140
aF-0.96683769103364547
aa(lp141
(g25
g32
tp142
aF0.26342124627288832
aa(lp143
(g25
g34
tp144
aF-1.1426763912957481
aa(lp145
(g25
g36
tp146
aF1.7881893696433515
aa(lp147
(g25
g38
tp148
aF-0.075767689700657004
aa(lp149
(g25
g40
tp150
aF1.0262245676713502
aa(lp151
(g28
g43
tp152
aF-1.5663242401899904
aa(lp153
(g28
g45
tp154
aF-0.43259661715610392
aa(lp155
(g28
g47
tp156
aF-0.11914334929974688
aa(lp157
(g30
g43
tp158
aF-0.84865392992157063
aa(lp159
(g30
g45
tp160
aF-3.3118897678590105
aa(lp161
(g30
g47
tp162
aF1.2409165700102314
aa(lp163
(g32
g43
tp164
aF1.2622702577396561
aa(lp165
(g32
g45
tp166
aF0.025614615008376463
aa(lp167
(g32
g47
tp168
aF-0.84950344403775868
aa(lp169
(g34
g43
tp170
aF-0.25551003760701663
aa(lp171
(g34
g45
tp172
aF-0.2627183537499681
aa(lp173
(g34
g47
tp174
aF0.34670393826468432
aa(lp175
(g36
g43
tp176
aF-1.8222614977703464
aa(lp177
(g36
g45
tp178
aF-1.9430804499562822
aa(lp179
(g36
g47
tp180
aF-2.9793477491344298
aa(lp181
(g38
g43
tp182
aF0.1995673185858628
aa(lp183
(g38
g45
tp184
aF1.354644254097281
aa(lp185
(g38
g47
tp186
aF2.4364757953918392
aa(lp187
(g40
g43
tp188
aF1.6044236922473347
aa(lp189
(g40
g45
tp190
aF0.05317791335706662
aa(lp191
(g40
g47
tp192
aF-0.97012531451650363
aa(lp193
(g28
g28
tp194
aF-1.8743107297483121
aa(lp195
(g28
g30
tp196
aF-0.40219647236773309
aa(lp197
(g28
g32
tp198
aF-3.9489007364056308
aa(lp199
(g28
g34
tp200
aF-1.5738279623844165
aa(lp201
(g28
g36
tp202
aF-1.4683353912306756
aa(lp203
(g28
g38
tp204
aF0.44698517737574839
aa(lp205
(g28
g40
tp206
aF-0.54829061180295269
aa(lp207
(g30
g28
tp208
aF-3.1931931076461209
aa(lp209
(g30
g30
tp210
aF-0.59929005564185245
aa(lp211
(g30
g32
tp212
aF0.82715654966935226
aa(lp213
(g30
g34
tp214
aF2.8349002850729867
aa(lp215
(g30
g36
tp216
aF0.77488962630798008
aa(lp217
(g30
g38
tp218
aF0.98839303595991912
aa(lp219
(g30
g40
tp220
aF-0.29564057422598233
aa(lp221
(g32
g28
tp222
aF0.29835420573822358
aa(lp223
(g32
g30
tp224
aF0.19569115941044879
aa(lp225
(g32
g32
tp226
aF-1.6306499492437663
aa(lp227
(g32
g34
tp228
aF-1.8740440181048248
aa(lp229
(g32
g36
tp230
aF0.31520040171702929
aa(lp231
(g32
g38
tp232
aF-0.47648169524806516
aa(lp233
(g32
g40
tp234
aF-1.1616231444094058
aa(lp235
(g34
g28
tp236
aF-1.602711966193167
aa(lp237
(g34
g30
tp238
aF-0.60165584436365538
aa(lp239
(g34
g32
tp240
aF-2.5435690102573139
aa(lp241
(g34
g34
tp242
aF0.74251666085139745
aa(lp243
(g34
g36
tp244
aF-1.7420281229238401
aa(lp245
(g34
g38
tp246
aF-1.2329290943139617
aa(lp247
(g34
g40
tp248
aF-0.7851718067138348
aa(lp249
(g36
g28
tp250
aF0.14536061346856077
aa(lp251
(g36
g30
tp252
aF0.32089428627515254
aa(lp253
(g36
g32
tp254
aF-2.2821777538523262
aa(lp255
(g36
g34
tp256
aF1.4927503243615095
aa(lp257
(g36
g36
tp258
aF-1.7353772533038028
aa(lp259
(g36
g38
tp260
aF-0.38302417396881866
aa(lp261
(g36
g40
tp262
aF-1.390117147286563
aa(lp263
(g38
g28
tp264
aF0.067011165371557879
aa(lp265
(g38
g30
tp266
aF-0.19433260891764031
aa(lp267
(g38
g32
tp268
aF-3.1513575743819162
aa(lp269
(g38
g34
tp270
aF2.4249873608014507
aa(lp271
(g38
g36
tp272
aF0.77681887940745498
aa(lp273
(g38
g38
tp274
aF-3.2379930758645084
aa(lp275
(g38
g40
tp276
aF-0.58522227934080329
aa(lp277
(g40
g28
tp278
aF0.81311394863508646
aa(lp279
(g40
g30
tp280
aF1.4665541971268909
aa(lp281
(g40
g32
tp282
aF2.8073105372737941
aa(lp283
(g40
g34
tp284
aF0.58064056631781247
aa(lp285
(g40
g36
tp286
aF-2.16576292661943
aa(lp287
(g40
g38
tp288
aF-1.6803065282049017
aa(lp289
(g40
g40
tp290
aF0.018774501452248737
aatRp291
sS'id'
p292
I53933
sS'parent'
p293
(I53844
I1
tp294
sb.